target datalayout = "e-m:e-p270:32:32-p271:32:32-p272:64:64-i64:64-i128:128-f80:128-n8:16:32:64-S128"
target triple = "x86_64-pc-linux-gnu"

@hf_padding = internal global i32 0, align 4

; Function Attrs: null_pointer_is_valid sspstrong uwtable
define internal void @add_padding_item(i32 noundef %0, i32 noundef %1, ptr noundef %2, ptr noundef %3) #0 {
  %5 = alloca i32, align 4
  %6 = alloca i32, align 4
  %7 = alloca ptr, align 8
  %8 = alloca ptr, align 8
  %9 = alloca i32, align 4
  store i32 %0, ptr %5, align 4
  store i32 %1, ptr %6, align 4
  store ptr %2, ptr %7, align 8
  store ptr %3, ptr %8, align 8
  %10 = load i32, ptr %6, align 4
  %11 = load i32, ptr %5, align 4
  %12 = icmp sgt i32 %10, %11
  br i1 %12, label %13, label %32

13:                                               ; preds = %4
  %14 = load i32, ptr %6, align 4
  %15 = load ptr, ptr %7, align 8
  %16 = call i32 @tvb_reported_length(ptr noundef %15)
  %17 = icmp slt i32 %14, %16
  br i1 %17, label %18, label %32

18:                                               ; preds = %13
  call void @llvm.lifetime.start.p0(i64 4, ptr %9) #5
  %19 = load i32, ptr %6, align 4
  %20 = load i32, ptr %5, align 4
  %21 = sub i32 %19, %20
  store i32 %21, ptr %9, align 4
  %22 = load i32, ptr %9, align 4
  %23 = icmp sle i32 %22, 7
  br i1 %23, label %24, label %31

24:                                               ; preds = %18
  %25 = load ptr, ptr %8, align 8
  %26 = load i32, ptr @hf_padding, align 4
  %27 = load ptr, ptr %7, align 8
  %28 = load i32, ptr %5, align 4
  %29 = load i32, ptr %9, align 4
  %30 = call ptr @proto_tree_add_item(ptr noundef %25, i32 noundef %26, ptr noundef %27, i32 noundef %28, i32 noundef %29, i32 noundef 0)
  br label %31

31:                                               ; preds = %24, %18
  call void @llvm.lifetime.end.p0(i64 4, ptr %9) #5
  br label %32

32:                                               ; preds = %31, %13, %4
  ret void
}