; Function Attrs: null_pointer_is_valid sspstrong uwtable
define internal fastcc void @add_padding_item(i32 noundef %0, i32 noundef %1, ptr noundef %2, ptr noundef %3) unnamed_addr #0 {
  %5 = icmp sgt i32 %1, %0
  br i1 %5, label %6, label %15

6:                                                ; preds = %4
  %7 = tail call i32 @tvb_reported_length(ptr noundef %2)
  %8 = icmp slt i32 %1, %7
  br i1 %8, label %9, label %15

9:                                                ; preds = %6
  %10 = sub i32 %1, %0
  %11 = icmp slt i32 %10, 8
  br i1 %11, label %12, label %15

12:                                               ; preds = %9
  %13 = load i32, ptr @hf_padding, align 4
  %14 = tail call ptr @proto_tree_add_item(ptr noundef %3, i32 noundef %13, ptr noundef %2, i32 noundef %0, i32 noundef %10, i32 noundef 0)
  br label %15

15:                                               ; preds = %9, %12, %6, %4
  ret void
}